; Function Attrs: nounwind uwtable
define internal range(i32 0, 2) i32 @opj_j2k_read_crg(ptr noundef readonly captures(none) %0, ptr readnone captures(none) %1, i32 noundef %2, ptr noundef %3) #3 {
  %5 = getelementptr inbounds nuw i8, ptr %0, i64 136
  %6 = load ptr, ptr %5, align 8, !tbaa !47
  %7 = getelementptr inbounds nuw i8, ptr %6, i64 16
  %8 = load i32, ptr %7, align 8, !tbaa !58
  %9 = shl i32 %8, 2
  %.not = icmp eq i32 %2, %9
  br i1 %.not, label %12, label %10

10:                                               ; preds = %4
  %11 = tail call i32 (ptr, i32, ptr, ...) @opj_event_msg(ptr noundef %3, i32 noundef 1, ptr noundef nonnull @.str.236) #21
  br label %12

12:                                               ; preds = %4, %10
  %.0 = phi i32 [ 0, %10 ], [ 1, %4 ]
  ret i32 %.0
}